target datalayout = "e-m:e-p270:32:32-p271:32:32-p272:64:64-i64:64-i128:128-f80:128-n8:16:32:64-S128"
target triple = "x86_64-unknown-linux-gnu"

%struct.TPMEmulator = type { %struct.TPMBackend, ptr, %struct.CharBackend, ptr, i32, i64, i8, ptr, %struct.QemuMutex, i8, %struct.TPMBlobBuffers, i8, ptr }
%struct.TPMBackend = type { %struct.Object, ptr, i8, i8, ptr, ptr, %struct.anon }
%struct.Object = type { ptr, ptr, ptr, i32, ptr }
%struct.anon = type { ptr, ptr }
%struct.CharBackend = type { ptr, ptr, ptr, ptr, ptr, ptr, i32, i32 }
%struct.QemuMutex = type { %union.pthread_mutex_t, i8 }
%union.pthread_mutex_t = type { %struct.__pthread_mutex_s }
%struct.__pthread_mutex_s = type { i32, i32, i32, i32, i32, i16, i16, %struct.__pthread_internal_list }
%struct.__pthread_internal_list = type { ptr, ptr }
%struct.TPMBlobBuffers = type { i32, %struct.TPMSizedBuffer, i32, %struct.TPMSizedBuffer, i32, %struct.TPMSizedBuffer }
%struct.TPMSizedBuffer = type { i32, ptr }
%struct.timeval = type { i64, i64 }

@.str = private unnamed_addr constant [13 x i8] c"tpm-emulator\00", align 1
@.str.2 = private unnamed_addr constant [36 x i8] c"../qemu/backends/tpm/tpm_emulator.c\00", align 1
@__func__.TPM_EMULATOR = private unnamed_addr constant [13 x i8] c"TPM_EMULATOR\00", align 1
@trace_events_enabled_count = external global i32, align 4
@message_with_timestamp = external global i8, align 1
@qemu_loglevel = external global i32, align 4
@_TRACE_TPM_EMULATOR_PRE_SAVE_DSTATE = external global i16, align 2
@.str.56 = private unnamed_addr constant [37 x i8] c"%d@%zu.%06zu:tpm_emulator_pre_save \0A\00", align 1
@.str.57 = private unnamed_addr constant [24 x i8] c"tpm_emulator_pre_save \0A\00", align 1

; Function Attrs: nounwind sspstrong uwtable
define internal zeroext i1 @qemu_loglevel_mask(i32 noundef %mask) #0 {
entry:
  %mask.addr = alloca i32, align 4
  store i32 %mask, ptr %mask.addr, align 4
  %0 = load i32, ptr @qemu_loglevel, align 4
  %1 = load i32, ptr %mask.addr, align 4
  %and = and i32 %0, %1
  %cmp = icmp ne i32 %and, 0
  ret i1 %cmp
}

; Function Attrs: nounwind sspstrong uwtable
define internal void @_nocheck__trace_tpm_emulator_pre_save() #0 {
entry:
  %_now = alloca %struct.timeval, align 8
  %0 = load i32, ptr @trace_events_enabled_count, align 4
  %tobool = icmp ne i32 %0, 0
  %lnot = xor i1 %tobool, true
  %lnot1 = xor i1 %lnot, true
  %lnot.ext = zext i1 %lnot1 to i32
  %conv = sext i32 %lnot.ext to i64
  %tobool2 = icmp ne i64 %conv, 0
  br i1 %tobool2, label %land.lhs.true, label %if.end11

land.lhs.true:                                    ; preds = %entry
  %1 = load i16, ptr @_TRACE_TPM_EMULATOR_PRE_SAVE_DSTATE, align 2
  %conv3 = zext i16 %1 to i32
  %tobool4 = icmp ne i32 %conv3, 0
  br i1 %tobool4, label %land.lhs.true5, label %if.end11

land.lhs.true5:                                   ; preds = %land.lhs.true
  %call = call zeroext i1 @qemu_loglevel_mask(i32 noundef 32768)
  br i1 %call, label %if.then, label %if.end11

if.then:                                          ; preds = %land.lhs.true5
  %2 = load i8, ptr @message_with_timestamp, align 1
  %tobool7 = trunc i8 %2 to i1
  br i1 %tobool7, label %if.then8, label %if.else

if.then8:                                         ; preds = %if.then
  %call9 = call i32 @gettimeofday(ptr noundef %_now, ptr noundef null) #11
  %call10 = call i32 @qemu_get_thread_id()
  %tv_sec = getelementptr inbounds %struct.timeval, ptr %_now, i32 0, i32 0
  %3 = load i64, ptr %tv_sec, align 8
  %tv_usec = getelementptr inbounds %struct.timeval, ptr %_now, i32 0, i32 1
  %4 = load i64, ptr %tv_usec, align 8
  call void (ptr, ...) @qemu_log(ptr noundef @.str.56, i32 noundef %call10, i64 noundef %3, i64 noundef %4)
  br label %if.end

if.else:                                          ; preds = %if.then
  call void (ptr, ...) @qemu_log(ptr noundef @.str.57)
  br label %if.end

if.end:                                           ; preds = %if.else, %if.then8
  br label %if.end11

if.end11:                                         ; preds = %if.end, %land.lhs.true5, %land.lhs.true, %entry
  ret void
}

; Function Attrs: nounwind sspstrong uwtable
define internal i32 @tpm_emulator_get_state_blobs(ptr noundef %tpm_emu) #0 {
entry:
  %retval = alloca i32, align 4
  %tpm_emu.addr = alloca ptr, align 8
  %state_blobs = alloca ptr, align 8
  store ptr %tpm_emu, ptr %tpm_emu.addr, align 8
  %0 = load ptr, ptr %tpm_emu.addr, align 8
  %state_blobs1 = getelementptr inbounds %struct.TPMEmulator, ptr %0, i32 0, i32 10
  store ptr %state_blobs1, ptr %state_blobs, align 8
  %1 = load ptr, ptr %tpm_emu.addr, align 8
  %2 = load ptr, ptr %state_blobs, align 8
  %permanent = getelementptr inbounds %struct.TPMBlobBuffers, ptr %2, i32 0, i32 1
  %3 = load ptr, ptr %state_blobs, align 8
  %permanent_flags = getelementptr inbounds %struct.TPMBlobBuffers, ptr %3, i32 0, i32 0
  %call = call i32 @tpm_emulator_get_state_blob(ptr noundef %1, i8 noundef zeroext 1, ptr noundef %permanent, ptr noundef %permanent_flags)
  %cmp = icmp slt i32 %call, 0
  br i1 %cmp, label %if.then, label %lor.lhs.false

lor.lhs.false:                                    ; preds = %entry
  %4 = load ptr, ptr %tpm_emu.addr, align 8
  %5 = load ptr, ptr %state_blobs, align 8
  %volatil = getelementptr inbounds %struct.TPMBlobBuffers, ptr %5, i32 0, i32 3
  %6 = load ptr, ptr %state_blobs, align 8
  %volatil_flags = getelementptr inbounds %struct.TPMBlobBuffers, ptr %6, i32 0, i32 2
  %call2 = call i32 @tpm_emulator_get_state_blob(ptr noundef %4, i8 noundef zeroext 2, ptr noundef %volatil, ptr noundef %volatil_flags)
  %cmp3 = icmp slt i32 %call2, 0
  br i1 %cmp3, label %if.then, label %lor.lhs.false4

lor.lhs.false4:                                   ; preds = %lor.lhs.false
  %7 = load ptr, ptr %tpm_emu.addr, align 8
  %8 = load ptr, ptr %state_blobs, align 8
  %savestate = getelementptr inbounds %struct.TPMBlobBuffers, ptr %8, i32 0, i32 5
  %9 = load ptr, ptr %state_blobs, align 8
  %savestate_flags = getelementptr inbounds %struct.TPMBlobBuffers, ptr %9, i32 0, i32 4
  %call5 = call i32 @tpm_emulator_get_state_blob(ptr noundef %7, i8 noundef zeroext 3, ptr noundef %savestate, ptr noundef %savestate_flags)
  %cmp6 = icmp slt i32 %call5, 0
  br i1 %cmp6, label %if.then, label %if.end

if.then:                                          ; preds = %lor.lhs.false4, %lor.lhs.false, %entry
  br label %err_exit

if.end:                                           ; preds = %lor.lhs.false4
  store i32 0, ptr %retval, align 4
  br label %return

err_exit:                                         ; preds = %if.then
  %10 = load ptr, ptr %state_blobs, align 8
  %volatil7 = getelementptr inbounds %struct.TPMBlobBuffers, ptr %10, i32 0, i32 3
  call void @tpm_sized_buffer_reset(ptr noundef %volatil7)
  %11 = load ptr, ptr %state_blobs, align 8
  %permanent8 = getelementptr inbounds %struct.TPMBlobBuffers, ptr %11, i32 0, i32 1
  call void @tpm_sized_buffer_reset(ptr noundef %permanent8)
  %12 = load ptr, ptr %state_blobs, align 8
  %savestate9 = getelementptr inbounds %struct.TPMBlobBuffers, ptr %12, i32 0, i32 5
  call void @tpm_sized_buffer_reset(ptr noundef %savestate9)
  store i32 -1, ptr %retval, align 4
  br label %return

return:                                           ; preds = %err_exit, %if.end
  %13 = load i32, ptr %retval, align 4
  ret i32 %13
}

; Function Attrs: nounwind sspstrong uwtable
define internal void @trace_tpm_emulator_pre_save() #0 {
entry:
  call void @_nocheck__trace_tpm_emulator_pre_save()
  ret void
}

; Function Attrs: nounwind sspstrong uwtable
define internal ptr @TPM_EMULATOR(ptr noundef %obj) #0 {
entry:
  %obj.addr = alloca ptr, align 8
  store ptr %obj, ptr %obj.addr, align 8
  %0 = load ptr, ptr %obj.addr, align 8
  %call = call ptr @object_dynamic_cast_assert(ptr noundef %0, ptr noundef @.str, ptr noundef @.str.2, i32 noundef 50, ptr noundef @__func__.TPM_EMULATOR)
  ret ptr %call
}

; Function Attrs: nounwind sspstrong uwtable
define internal i32 @tpm_emulator_pre_save(ptr noundef %opaque) #0 {
entry:
  %opaque.addr = alloca ptr, align 8
  %tb = alloca ptr, align 8
  %tpm_emu = alloca ptr, align 8
  %ret = alloca i32, align 4
  store ptr %opaque, ptr %opaque.addr, align 8
  %0 = load ptr, ptr %opaque.addr, align 8
  store ptr %0, ptr %tb, align 8
  %1 = load ptr, ptr %tb, align 8
  %call = call ptr @TPM_EMULATOR(ptr noundef %1)
  store ptr %call, ptr %tpm_emu, align 8
  call void @trace_tpm_emulator_pre_save()
  %2 = load ptr, ptr %tb, align 8
  call void @tpm_backend_finish_sync(ptr noundef %2)
  %3 = load ptr, ptr %tpm_emu, align 8
  %call1 = call i32 @tpm_emulator_get_state_blobs(ptr noundef %3)
  store i32 %call1, ptr %ret, align 4
  %4 = load i32, ptr %ret, align 4
  %cmp = icmp eq i32 %4, 0
  %5 = load ptr, ptr %tpm_emu, align 8
  %relock_storage = getelementptr inbounds %struct.TPMEmulator, ptr %5, i32 0, i32 11
  %frombool = zext i1 %cmp to i8
  store i8 %frombool, ptr %relock_storage, align 8
  %6 = load i32, ptr %ret, align 4
  ret i32 %6
}