; Function Attrs: nounwind sspstrong uwtable
define internal range(i32 -1, 1) i32 @tpm_emulator_pre_save(ptr noundef %opaque) #0 {
entry:
  %_now.i.i = alloca %struct.timeval, align 8
  %call.i = tail call ptr @object_dynamic_cast_assert(ptr noundef %opaque, ptr noundef nonnull @.str, ptr noundef nonnull @.str.2, i32 noundef 50, ptr noundef nonnull @__func__.TPM_EMULATOR) #12
  call void @llvm.lifetime.start.p0(i64 16, ptr nonnull %_now.i.i)
  %0 = load i32, ptr @trace_events_enabled_count, align 4
  %tobool.i.i = icmp ne i32 %0, 0
  %1 = load i16, ptr @_TRACE_TPM_EMULATOR_PRE_SAVE_DSTATE, align 2
  %tobool4.i.i = icmp ne i16 %1, 0
  %or.cond.i.i = select i1 %tobool.i.i, i1 %tobool4.i.i, i1 false
  br i1 %or.cond.i.i, label %land.lhs.true5.i.i, label %trace_tpm_emulator_pre_save.exit

land.lhs.true5.i.i:                               ; preds = %entry
  %2 = load i32, ptr @qemu_loglevel, align 4
  %and.i.i.i = and i32 %2, 32768
  %cmp.i.not.i.i = icmp eq i32 %and.i.i.i, 0
  br i1 %cmp.i.not.i.i, label %trace_tpm_emulator_pre_save.exit, label %if.then.i.i

if.then.i.i:                                      ; preds = %land.lhs.true5.i.i
  %3 = load i8, ptr @message_with_timestamp, align 1
  %tobool7.i.i = trunc i8 %3 to i1
  br i1 %tobool7.i.i, label %if.then8.i.i, label %if.else.i.i

if.then8.i.i:                                     ; preds = %if.then.i.i
  %call9.i.i = call i32 @gettimeofday(ptr noundef nonnull %_now.i.i, ptr noundef null) #12
  %call10.i.i = tail call i32 @qemu_get_thread_id() #12
  %4 = load i64, ptr %_now.i.i, align 8
  %tv_usec.i.i = getelementptr inbounds nuw i8, ptr %_now.i.i, i64 8
  %5 = load i64, ptr %tv_usec.i.i, align 8
  tail call void (ptr, ...) @qemu_log(ptr noundef nonnull @.str.56, i32 noundef %call10.i.i, i64 noundef %4, i64 noundef %5) #12
  br label %trace_tpm_emulator_pre_save.exit

if.else.i.i:                                      ; preds = %if.then.i.i
  tail call void (ptr, ...) @qemu_log(ptr noundef nonnull @.str.57) #12
  br label %trace_tpm_emulator_pre_save.exit

trace_tpm_emulator_pre_save.exit:                 ; preds = %entry, %land.lhs.true5.i.i, %if.then8.i.i, %if.else.i.i
  call void @llvm.lifetime.end.p0(i64 16, ptr nonnull %_now.i.i)
  tail call void @tpm_backend_finish_sync(ptr noundef %opaque) #12
  %state_blobs1.i = getelementptr inbounds nuw i8, ptr %call.i, i64 248
  %permanent.i = getelementptr inbounds nuw i8, ptr %call.i, i64 256
  %call.i4 = tail call fastcc i32 @tpm_emulator_get_state_blob(ptr noundef %call.i, i8 noundef zeroext 1, ptr noundef nonnull %permanent.i, ptr noundef nonnull %state_blobs1.i)
  %cmp.i = icmp slt i32 %call.i4, 0
  br i1 %cmp.i, label %err_exit.i, label %lor.lhs.false.i

lor.lhs.false.i:                                  ; preds = %trace_tpm_emulator_pre_save.exit
  %volatil.i = getelementptr inbounds nuw i8, ptr %call.i, i64 280
  %volatil_flags.i = getelementptr inbounds nuw i8, ptr %call.i, i64 272
  %call2.i = tail call fastcc i32 @tpm_emulator_get_state_blob(ptr noundef nonnull %call.i, i8 noundef zeroext 2, ptr noundef nonnull %volatil.i, ptr noundef nonnull %volatil_flags.i)
  %cmp3.i = icmp slt i32 %call2.i, 0
  br i1 %cmp3.i, label %err_exit.i, label %lor.lhs.false4.i

lor.lhs.false4.i:                                 ; preds = %lor.lhs.false.i
  %savestate.i = getelementptr inbounds nuw i8, ptr %call.i, i64 304
  %savestate_flags.i = getelementptr inbounds nuw i8, ptr %call.i, i64 296
  %call5.i = tail call fastcc i32 @tpm_emulator_get_state_blob(ptr noundef nonnull %call.i, i8 noundef zeroext 3, ptr noundef nonnull %savestate.i, ptr noundef nonnull %savestate_flags.i)
  %cmp6.i = icmp slt i32 %call5.i, 0
  br i1 %cmp6.i, label %err_exit.i, label %tpm_emulator_get_state_blobs.exit

err_exit.i:                                       ; preds = %lor.lhs.false4.i, %lor.lhs.false.i, %trace_tpm_emulator_pre_save.exit
  %volatil7.i = getelementptr inbounds nuw i8, ptr %call.i, i64 280
  tail call void @tpm_sized_buffer_reset(ptr noundef nonnull %volatil7.i) #12
  tail call void @tpm_sized_buffer_reset(ptr noundef nonnull %permanent.i) #12
  %savestate9.i = getelementptr inbounds nuw i8, ptr %call.i, i64 304
  tail call void @tpm_sized_buffer_reset(ptr noundef nonnull %savestate9.i) #12
  br label %tpm_emulator_get_state_blobs.exit

tpm_emulator_get_state_blobs.exit:                ; preds = %lor.lhs.false4.i, %err_exit.i
  %cmp = phi i8 [ 0, %err_exit.i ], [ 1, %lor.lhs.false4.i ]
  %retval.0.i = phi i32 [ -1, %err_exit.i ], [ 0, %lor.lhs.false4.i ]
  %relock_storage = getelementptr inbounds nuw i8, ptr %call.i, i64 320
  store i8 %cmp, ptr %relock_storage, align 8
  ret i32 %retval.0.i
}